target datalayout = "e-m:e-p270:32:32-p271:32:32-p272:64:64-i64:64-i128:128-f80:128-n8:16:32:64-S128"
target triple = "x86_64-pc-linux-gnu"

%struct.ewah_bitmap = type { ptr, i64, i64, i64, ptr }

; Function Attrs: nounwind uwtable
define dso_local i32 @ewah_checksum(ptr noundef %0) #0 {
  %2 = alloca ptr, align 8
  %3 = alloca ptr, align 8
  %4 = alloca i32, align 4
  %5 = alloca i64, align 8
  store ptr %0, ptr %2, align 8, !tbaa !4
  call void @llvm.lifetime.start.p0(i64 8, ptr %3) #7
  %6 = load ptr, ptr %2, align 8, !tbaa !4
  %7 = getelementptr inbounds nuw %struct.ewah_bitmap, ptr %6, i32 0, i32 0
  %8 = load ptr, ptr %7, align 8, !tbaa !21
  store ptr %8, ptr %3, align 8, !tbaa !52
  call void @llvm.lifetime.start.p0(i64 4, ptr %4) #7
  %9 = load ptr, ptr %2, align 8, !tbaa !4
  %10 = getelementptr inbounds nuw %struct.ewah_bitmap, ptr %9, i32 0, i32 3
  %11 = load i64, ptr %10, align 8, !tbaa !13
  %12 = trunc i64 %11 to i32
  store i32 %12, ptr %4, align 4, !tbaa !9
  call void @llvm.lifetime.start.p0(i64 8, ptr %5) #7
  %13 = load ptr, ptr %2, align 8, !tbaa !4
  %14 = getelementptr inbounds nuw %struct.ewah_bitmap, ptr %13, i32 0, i32 1
  %15 = load i64, ptr %14, align 8, !tbaa !20
  %16 = mul i64 %15, 8
  store i64 %16, ptr %5, align 8, !tbaa !11
  br label %17

17:                                               ; preds = %21, %1
  %18 = load i64, ptr %5, align 8, !tbaa !11
  %19 = add i64 %18, -1
  store i64 %19, ptr %5, align 8, !tbaa !11
  %20 = icmp ne i64 %18, 0
  br i1 %20, label %21, label %31

21:                                               ; preds = %17
  %22 = load i32, ptr %4, align 4, !tbaa !9
  %23 = shl i32 %22, 5
  %24 = load i32, ptr %4, align 4, !tbaa !9
  %25 = sub i32 %23, %24
  %26 = load ptr, ptr %3, align 8, !tbaa !52
  %27 = getelementptr inbounds nuw i8, ptr %26, i32 1
  store ptr %27, ptr %3, align 8, !tbaa !52
  %28 = load i8, ptr %26, align 1, !tbaa !54
  %29 = zext i8 %28 to i32
  %30 = add i32 %25, %29
  store i32 %30, ptr %4, align 4, !tbaa !9
  br label %17, !llvm.loop !55

31:                                               ; preds = %17
  %32 = load i32, ptr %4, align 4, !tbaa !9
  call void @llvm.lifetime.end.p0(i64 8, ptr %5) #7
  call void @llvm.lifetime.end.p0(i64 4, ptr %4) #7
  call void @llvm.lifetime.end.p0(i64 8, ptr %3) #7
  ret i32 %32
}