; Function Attrs: nofree norecurse nosync nounwind memory(read, inaccessiblemem: none) uwtable
define dso_local i32 @ewah_checksum(ptr noundef readonly captures(none) %0) local_unnamed_addr #7 {
  %2 = getelementptr inbounds nuw i8, ptr %0, i64 24
  %3 = load i64, ptr %2, align 8, !tbaa !4
  %4 = trunc i64 %3 to i32
  %5 = getelementptr inbounds nuw i8, ptr %0, i64 8
  %6 = load i64, ptr %5, align 8, !tbaa !13
  %7 = shl i64 %6, 3
  %.not9 = icmp eq i64 %7, 0
  br i1 %.not9, label %._crit_edge, label %.lr.ph.preheader

.lr.ph.preheader:                                 ; preds = %1
  %8 = load ptr, ptr %0, align 8, !tbaa !14
  br label %.lr.ph

.lr.ph:                                           ; preds = %.lr.ph.preheader, %.lr.ph
  %.012 = phi i64 [ %9, %.lr.ph ], [ %7, %.lr.ph.preheader ]
  %.0711 = phi i32 [ %14, %.lr.ph ], [ %4, %.lr.ph.preheader ]
  %.0810 = phi ptr [ %11, %.lr.ph ], [ %8, %.lr.ph.preheader ]
  %9 = add i64 %.012, -1
  %10 = mul i32 %.0711, 31
  %11 = getelementptr inbounds nuw i8, ptr %.0810, i64 1
  %12 = load i8, ptr %.0810, align 1, !tbaa !45
  %13 = zext i8 %12 to i32
  %14 = add i32 %10, %13
  %.not = icmp eq i64 %9, 0
  br i1 %.not, label %._crit_edge, label %.lr.ph, !llvm.loop !46

._crit_edge:                                      ; preds = %.lr.ph, %1
  %.07.lcssa = phi i32 [ %4, %1 ], [ %14, %.lr.ph ]
  ret i32 %.07.lcssa
}